target datalayout = "e-m:e-p270:32:32-p271:32:32-p272:64:64-i64:64-i128:128-f80:128-n8:16:32:64-S128"
target triple = "x86_64-pc-linux-gnu"

%"struct.std::_Vector_base" = type { %"struct.std::_Vector_base<cv::Point_<float>, std::allocator<cv::Point_<float>>>::_Vector_impl" }
%"struct.std::_Vector_base<cv::Point_<float>, std::allocator<cv::Point_<float>>>::_Vector_impl" = type { %"struct.std::_Vector_base<cv::Point_<float>, std::allocator<cv::Point_<float>>>::_Vector_impl_data" }
%"struct.std::_Vector_base<cv::Point_<float>, std::allocator<cv::Point_<float>>>::_Vector_impl_data" = type { ptr, ptr, ptr }
%"struct.std::_Vector_base.5" = type { %"struct.std::_Vector_base<cv::KeyPoint, std::allocator<cv::KeyPoint>>::_Vector_impl" }
%"struct.std::_Vector_base<cv::KeyPoint, std::allocator<cv::KeyPoint>>::_Vector_impl" = type { %"struct.std::_Vector_base<cv::KeyPoint, std::allocator<cv::KeyPoint>>::_Vector_impl_data" }
%"struct.std::_Vector_base<cv::KeyPoint, std::allocator<cv::KeyPoint>>::_Vector_impl_data" = type { ptr, ptr, ptr }
%"class.cv::Point_" = type { float, float }
%"class.cv::KeyPoint" = type { %"class.cv::Point_", float, float, float, i32, i32 }

; Function Attrs: mustprogress nounwind uwtable
define linkonce_odr hidden noundef nonnull align 4 dereferenceable(28) ptr @_ZNSt6vectorIN2cv8KeyPointESaIS1_EEixEm(ptr noundef nonnull align 8 dereferenceable(24) %0, i64 noundef %1) #5 comdat align 2 {
  %3 = alloca ptr, align 8
  %4 = alloca i64, align 8
  store ptr %0, ptr %3, align 8, !tbaa !55
  store i64 %1, ptr %4, align 8, !tbaa !91
  %5 = load ptr, ptr %3, align 8
  %6 = getelementptr inbounds nuw %"struct.std::_Vector_base.5", ptr %5, i32 0, i32 0
  %7 = getelementptr inbounds nuw %"struct.std::_Vector_base<cv::KeyPoint, std::allocator<cv::KeyPoint>>::_Vector_impl_data", ptr %6, i32 0, i32 0
  %8 = load ptr, ptr %7, align 8, !tbaa !122
  %9 = load i64, ptr %4, align 8, !tbaa !91
  %10 = getelementptr inbounds nuw %"class.cv::KeyPoint", ptr %8, i64 %9
  ret ptr %10
}

; Function Attrs: mustprogress nounwind uwtable
define linkonce_odr hidden noundef nonnull align 4 dereferenceable(8) ptr @_ZNKSt6vectorIN2cv6Point_IfEESaIS2_EEixEm(ptr noundef nonnull align 8 dereferenceable(24) %0, i64 noundef %1) #5 comdat align 2 {
  %3 = alloca ptr, align 8
  %4 = alloca i64, align 8
  store ptr %0, ptr %3, align 8, !tbaa !49
  store i64 %1, ptr %4, align 8, !tbaa !91
  %5 = load ptr, ptr %3, align 8
  %6 = getelementptr inbounds nuw %"struct.std::_Vector_base", ptr %5, i32 0, i32 0
  %7 = getelementptr inbounds nuw %"struct.std::_Vector_base<cv::Point_<float>, std::allocator<cv::Point_<float>>>::_Vector_impl_data", ptr %6, i32 0, i32 0
  %8 = load ptr, ptr %7, align 8, !tbaa !94
  %9 = load i64, ptr %4, align 8, !tbaa !91
  %10 = getelementptr inbounds nuw %"class.cv::Point_", ptr %8, i64 %9
  ret ptr %10
}

; Function Attrs: mustprogress nounwind uwtable
define linkonce_odr hidden noundef i64 @_ZNKSt6vectorIN2cv8KeyPointESaIS1_EE4sizeEv(ptr noundef nonnull align 8 dereferenceable(24) %0) #5 comdat align 2 {
  %2 = alloca ptr, align 8
  store ptr %0, ptr %2, align 8, !tbaa !55
  %3 = load ptr, ptr %2, align 8
  %4 = getelementptr inbounds nuw %"struct.std::_Vector_base.5", ptr %3, i32 0, i32 0
  %5 = getelementptr inbounds nuw %"struct.std::_Vector_base<cv::KeyPoint, std::allocator<cv::KeyPoint>>::_Vector_impl_data", ptr %4, i32 0, i32 1
  %6 = load ptr, ptr %5, align 8, !tbaa !123
  %7 = getelementptr inbounds nuw %"struct.std::_Vector_base.5", ptr %3, i32 0, i32 0
  %8 = getelementptr inbounds nuw %"struct.std::_Vector_base<cv::KeyPoint, std::allocator<cv::KeyPoint>>::_Vector_impl_data", ptr %7, i32 0, i32 0
  %9 = load ptr, ptr %8, align 8, !tbaa !122
  %10 = ptrtoint ptr %6 to i64
  %11 = ptrtoint ptr %9 to i64
  %12 = sub i64 %10, %11
  %13 = sdiv exact i64 %12, 28
  ret i64 %13
}

; Function Attrs: mustprogress nounwind uwtable
define void @_ZN2cv6ccalib13CustomPattern18updateKeypointsPosERSt6vectorINS_8KeyPointESaIS3_EERKS2_INS_6Point_IfEESaIS8_EE(ptr noundef nonnull align 8 dereferenceable(336) %0, ptr noundef nonnull align 8 dereferenceable(24) %1, ptr noundef nonnull align 8 dereferenceable(24) %2) #5 align 2 {
  %4 = alloca ptr, align 8
  %5 = alloca ptr, align 8
  %6 = alloca ptr, align 8
  %7 = alloca i64, align 8
  store ptr %0, ptr %4, align 8, !tbaa !3
  store ptr %1, ptr %5, align 8, !tbaa !55
  store ptr %2, ptr %6, align 8, !tbaa !49
  call void @llvm.lifetime.start.p0(i64 8, ptr %7) #3
  store i64 0, ptr %7, align 8, !tbaa !91
  br label %8

8:                                                ; preds = %22, %3
  %9 = load i64, ptr %7, align 8, !tbaa !91
  %10 = load ptr, ptr %5, align 8, !tbaa !55
  %11 = call noundef i64 @_ZNKSt6vectorIN2cv8KeyPointESaIS1_EE4sizeEv(ptr noundef nonnull align 8 dereferenceable(24) %10) #3
  %12 = icmp ult i64 %9, %11
  br i1 %12, label %14, label %13

13:                                               ; preds = %8
  call void @llvm.lifetime.end.p0(i64 8, ptr %7) #3
  br label %25

14:                                               ; preds = %8
  %15 = load ptr, ptr %6, align 8, !tbaa !49
  %16 = load i64, ptr %7, align 8, !tbaa !91
  %17 = call noundef nonnull align 4 dereferenceable(8) ptr @_ZNKSt6vectorIN2cv6Point_IfEESaIS2_EEixEm(ptr noundef nonnull align 8 dereferenceable(24) %15, i64 noundef %16) #3
  %18 = load ptr, ptr %5, align 8, !tbaa !55
  %19 = load i64, ptr %7, align 8, !tbaa !91
  %20 = call noundef nonnull align 4 dereferenceable(28) ptr @_ZNSt6vectorIN2cv8KeyPointESaIS1_EEixEm(ptr noundef nonnull align 8 dereferenceable(24) %18, i64 noundef %19) #3
  %21 = getelementptr inbounds nuw %"class.cv::KeyPoint", ptr %20, i32 0, i32 0
  call void @llvm.memcpy.p0.p0.i64(ptr align 4 %21, ptr align 4 %17, i64 8, i1 false), !tbaa.struct !83
  br label %22

22:                                               ; preds = %14
  %23 = load i64, ptr %7, align 8, !tbaa !91
  %24 = add i64 %23, 1
  store i64 %24, ptr %7, align 8, !tbaa !91
  br label %8, !llvm.loop !131

25:                                               ; preds = %13
  ret void
}