; Function Attrs: mustprogress nofree norecurse nosync nounwind memory(readwrite, inaccessiblemem: none) uwtable
define void @_ZN2cv6ccalib13CustomPattern18updateKeypointsPosERSt6vectorINS_8KeyPointESaIS3_EERKS2_INS_6Point_IfEESaIS8_EE(ptr noundef nonnull readnone align 8 captures(none) dereferenceable(336) %0, ptr noundef nonnull readonly align 8 captures(none) dereferenceable(24) %1, ptr noundef nonnull readonly align 8 captures(none) dereferenceable(24) %2) local_unnamed_addr #12 align 2 {
  %4 = getelementptr inbounds nuw i8, ptr %1, i64 8
  %5 = load ptr, ptr %4, align 8, !tbaa !80
  %6 = load ptr, ptr %1, align 8, !tbaa !81
  %.not = icmp eq ptr %5, %6
  br i1 %.not, label %._crit_edge, label %.lr.ph

._crit_edge:                                      ; preds = %.lr.ph, %3
  ret void

.lr.ph:                                           ; preds = %3, %.lr.ph
  %7 = phi ptr [ %14, %.lr.ph ], [ %6, %3 ]
  %.06 = phi i64 [ %12, %.lr.ph ], [ 0, %3 ]
  %8 = load ptr, ptr %2, align 8, !tbaa !61
  %9 = getelementptr inbounds nuw %"class.cv::Point_", ptr %8, i64 %.06
  %10 = getelementptr inbounds nuw %"class.cv::KeyPoint", ptr %7, i64 %.06
  %11 = load i64, ptr %9, align 4
  store i64 %11, ptr %10, align 4
  %12 = add nuw i64 %.06, 1
  %13 = load ptr, ptr %4, align 8, !tbaa !80
  %14 = load ptr, ptr %1, align 8, !tbaa !81
  %15 = ptrtoint ptr %13 to i64
  %16 = ptrtoint ptr %14 to i64
  %17 = sub i64 %15, %16
  %18 = sdiv exact i64 %17, 28
  %19 = icmp ult i64 %12, %18
  br i1 %19, label %.lr.ph, label %._crit_edge, !llvm.loop !82
}